; Function Attrs: nounwind uwtable
define noundef ptr @Llb_Nonlin4CreateOrder(ptr noundef %0) local_unnamed_addr #0 {
  %2 = alloca i32, align 4
  call void @llvm.lifetime.start.p0(i64 4, ptr nonnull %2) #18
  store i32 0, ptr %2, align 4, !tbaa !30
  %3 = getelementptr i8, ptr %0, i64 32
  %.val37 = load ptr, ptr %3, align 8, !tbaa !43
  %4 = getelementptr i8, ptr %.val37, i64 4
  %.val37.val = load i32, ptr %4, align 4, !tbaa !23
  %5 = tail call noalias dereferenceable_or_null(16) ptr @malloc(i64 noundef 16) #19
  %6 = add i32 %.val37.val, -1
  %or.cond.i.i = icmp ult i32 %6, 15
  %spec.store.select.i.i = select i1 %or.cond.i.i, i32 16, i32 %.val37.val
  %7 = getelementptr inbounds nuw i8, ptr %5, i64 4
  store i32 %spec.store.select.i.i, ptr %5, align 8, !tbaa !54
  %.not.i.i = icmp eq i32 %spec.store.select.i.i, 0
  br i1 %.not.i.i, label %Vec_IntAlloc.exit.thread.i, label %Vec_IntAlloc.exit.i

Vec_IntAlloc.exit.thread.i:                       ; preds = %1
  %8 = getelementptr inbounds nuw i8, ptr %5, i64 8
  store ptr null, ptr %8, align 8, !tbaa !27
  store i32 %.val37.val, ptr %7, align 4, !tbaa !55
  br label %Vec_IntStartFull.exit

Vec_IntAlloc.exit.i:                              ; preds = %1
  %9 = sext i32 %spec.store.select.i.i to i64
  %10 = shl nsw i64 %9, 2
  %11 = tail call noalias ptr @malloc(i64 noundef %10) #19
  %12 = getelementptr inbounds nuw i8, ptr %5, i64 8
  store ptr %11, ptr %12, align 8, !tbaa !27
  store i32 %.val37.val, ptr %7, align 4, !tbaa !55
  %.not.i = icmp eq ptr %11, null
  br i1 %.not.i, label %Vec_IntStartFull.exit, label %13

13:                                               ; preds = %Vec_IntAlloc.exit.i
  %14 = sext i32 %.val37.val to i64
  %15 = shl nsw i64 %14, 2
  tail call void @llvm.memset.p0.i64(ptr nonnull align 4 %11, i8 -1, i64 %15, i1 false)
  br label %Vec_IntStartFull.exit

Vec_IntStartFull.exit:                            ; preds = %Vec_IntAlloc.exit.thread.i, %Vec_IntAlloc.exit.i, %13
  tail call void @Aig_ManIncrementTravId(ptr noundef nonnull %0) #18
  %16 = getelementptr i8, ptr %0, i64 48
  %.val = load ptr, ptr %16, align 8, !tbaa !3
  %17 = getelementptr i8, ptr %0, i64 312
  %.val40 = load i32, ptr %17, align 8, !tbaa !58
  %18 = getelementptr inbounds nuw i8, ptr %.val, i64 32
  store i32 %.val40, ptr %18, align 8, !tbaa !59
  %19 = getelementptr i8, ptr %0, i64 104
  %.val3643 = load i32, ptr %19, align 8, !tbaa !45
  %20 = icmp sgt i32 %.val3643, 0
  br i1 %20, label %.lr.ph, label %.critedge.preheader

.lr.ph:                                           ; preds = %Vec_IntStartFull.exit
  %21 = getelementptr inbounds nuw i8, ptr %0, i64 24
  %22 = getelementptr i8, ptr %0, i64 112
  %23 = getelementptr i8, ptr %5, i64 8
  br label %30

.critedge.preheader:                              ; preds = %30, %Vec_IntStartFull.exit
  %24 = getelementptr inbounds nuw i8, ptr %0, i64 16
  %25 = load ptr, ptr %24, align 8, !tbaa !22
  %26 = getelementptr i8, ptr %25, i64 4
  %.val2745 = load i32, ptr %26, align 4, !tbaa !23
  %27 = icmp sgt i32 %.val2745, 0
  br i1 %27, label %.lr.ph47, label %Vec_IntFreeP.exit

.lr.ph47:                                         ; preds = %.critedge.preheader
  %28 = getelementptr i8, ptr %25, i64 8
  %.val28 = load ptr, ptr %28, align 8, !tbaa !25
  %29 = getelementptr i8, ptr %5, i64 8
  %.val32 = load ptr, ptr %29, align 8, !tbaa !27
  br label %48

30:                                               ; preds = %.lr.ph, %30
  %.044 = phi i32 [ 0, %.lr.ph ], [ %46, %30 ]
  %31 = load ptr, ptr %21, align 8, !tbaa !33
  %.val34 = load i32, ptr %22, align 8, !tbaa !34
  %32 = add nsw i32 %.val34, %.044
  %33 = getelementptr i8, ptr %31, i64 8
  %.val29 = load ptr, ptr %33, align 8, !tbaa !25
  %34 = sext i32 %32 to i64
  %35 = getelementptr inbounds ptr, ptr %.val29, i64 %34
  %36 = load ptr, ptr %35, align 8, !tbaa !26
  %37 = getelementptr i8, ptr %36, i64 36
  %.val31 = load i32, ptr %37, align 4, !tbaa !29
  %38 = load i32, ptr %2, align 4, !tbaa !30
  %39 = add nsw i32 %38, 1
  store i32 %39, ptr %2, align 4, !tbaa !30
  %.val39 = load ptr, ptr %23, align 8, !tbaa !27
  %40 = sext i32 %.val31 to i64
  %41 = getelementptr inbounds i32, ptr %.val39, i64 %40
  store i32 %38, ptr %41, align 4, !tbaa !30
  %42 = getelementptr i8, ptr %36, i64 8
  %.val35 = load ptr, ptr %42, align 8, !tbaa !35
  %43 = ptrtoint ptr %.val35 to i64
  %44 = and i64 %43, -2
  %45 = inttoptr i64 %44 to ptr
  call void @Llb_Nonlin4CreateOrder_rec(ptr noundef nonnull %0, ptr noundef %45, ptr noundef nonnull %5, ptr noundef nonnull %2)
  %46 = add nuw nsw i32 %.044, 1
  %.val36 = load i32, ptr %19, align 8, !tbaa !45
  %47 = icmp slt i32 %46, %.val36
  br i1 %47, label %30, label %.critedge.preheader, !llvm.loop !63

48:                                               ; preds = %.lr.ph47, %.critedge
  %.val2749 = phi i32 [ %.val2745, %.lr.ph47 ], [ %.val27, %.critedge ]
  %indvars.iv = phi i64 [ 0, %.lr.ph47 ], [ %indvars.iv.next, %.critedge ]
  %49 = getelementptr inbounds nuw ptr, ptr %.val28, i64 %indvars.iv
  %50 = load ptr, ptr %49, align 8, !tbaa !26
  %51 = getelementptr i8, ptr %50, i64 36
  %.val33 = load i32, ptr %51, align 4, !tbaa !29
  %52 = sext i32 %.val33 to i64
  %53 = getelementptr inbounds i32, ptr %.val32, i64 %52
  %54 = load i32, ptr %53, align 4, !tbaa !30
  %55 = icmp slt i32 %54, 0
  br i1 %55, label %56, label %.critedge

56:                                               ; preds = %48
  %57 = load i32, ptr %2, align 4, !tbaa !30
  %58 = add nsw i32 %57, 1
  store i32 %58, ptr %2, align 4, !tbaa !30
  store i32 %57, ptr %53, align 4, !tbaa !30
  %.val27.pre = load i32, ptr %26, align 4, !tbaa !23
  br label %.critedge

.critedge:                                        ; preds = %48, %56
  %.val27 = phi i32 [ %.val2749, %48 ], [ %.val27.pre, %56 ]
  %indvars.iv.next = add nuw nsw i64 %indvars.iv, 1
  %59 = sext i32 %.val27 to i64
  %60 = icmp slt i64 %indvars.iv.next, %59
  br i1 %60, label %48, label %Vec_IntFreeP.exit, !llvm.loop !64

Vec_IntFreeP.exit:                                ; preds = %.critedge, %.critedge.preheader
  call void @Aig_ManCleanMarkA(ptr noundef nonnull %0) #18
  call void @llvm.lifetime.end.p0(i64 4, ptr nonnull %2) #18
  ret ptr %5
}